target datalayout = "e-m:e-p270:32:32-p271:32:32-p272:64:64-i64:64-i128:128-f80:128-n8:16:32:64-S128"
target triple = "x86_64-pc-linux-gnu"

%struct.pg_enc2name = type { ptr, i32 }
%struct.pg_wchar_tbl = type { ptr, ptr, ptr, ptr, ptr, ptr, i32 }

@pg_enc2name_tbl = external constant [0 x %struct.pg_enc2name], align 8
@ClientEncoding = internal global ptr @pg_enc2name_tbl, align 8
@.str.1 = private unnamed_addr constant [10 x i8] c"mbutils.c\00", align 1
@DatabaseEncoding = internal global ptr @pg_enc2name_tbl, align 8
@pg_wchar_table = external constant [0 x %struct.pg_wchar_tbl], align 8
@.str.9 = private unnamed_addr constant [45 x i8] c"invalid byte value for encoding \22%s\22: 0x%02x\00", align 1
@__func__.pg_any_to_server = private unnamed_addr constant [17 x i8] c"pg_any_to_server\00", align 1

; Function Attrs: nounwind uwtable
define dso_local zeroext i1 @pg_verify_mbstr(i32 noundef %0, ptr noundef %1, i32 noundef %2, i1 noundef zeroext %3) #1 {
  %5 = alloca i1, align 1
  %6 = alloca i32, align 4
  %7 = alloca ptr, align 8
  %8 = alloca i32, align 4
  %9 = alloca i8, align 1
  %10 = alloca i32, align 4
  %11 = alloca i32, align 4
  store i32 %0, ptr %6, align 4
  store ptr %1, ptr %7, align 8
  store i32 %2, ptr %8, align 4
  %12 = zext i1 %3 to i8
  store i8 %12, ptr %9, align 1
  call void @llvm.lifetime.start.p0(i64 4, ptr %10) #9
  %13 = load i32, ptr %6, align 4
  %14 = sext i32 %13 to i64
  %15 = getelementptr inbounds [0 x %struct.pg_wchar_tbl], ptr @pg_wchar_table, i64 0, i64 %14
  %16 = getelementptr inbounds nuw %struct.pg_wchar_tbl, ptr %15, i32 0, i32 5
  %17 = load ptr, ptr %16, align 8
  %18 = load ptr, ptr %7, align 8
  %19 = load i32, ptr %8, align 4
  %20 = call i32 %17(ptr noundef %18, i32 noundef %19)
  store i32 %20, ptr %10, align 4
  %21 = load i32, ptr %10, align 4
  %22 = load i32, ptr %8, align 4
  %23 = icmp ne i32 %21, %22
  br i1 %23, label %24, label %37

24:                                               ; preds = %4
  %25 = load i8, ptr %9, align 1, !range !4, !noundef !5
  %26 = trunc i8 %25 to i1
  br i1 %26, label %27, label %28

27:                                               ; preds = %24
  store i1 false, ptr %5, align 1
  store i32 1, ptr %11, align 4
  br label %38

28:                                               ; preds = %24
  %29 = load i32, ptr %6, align 4
  %30 = load ptr, ptr %7, align 8
  %31 = load i32, ptr %10, align 4
  %32 = sext i32 %31 to i64
  %33 = getelementptr inbounds i8, ptr %30, i64 %32
  %34 = load i32, ptr %8, align 4
  %35 = load i32, ptr %10, align 4
  %36 = sub i32 %34, %35
  call void @report_invalid_encoding(i32 noundef %29, ptr noundef %33, i32 noundef %36) #12
  unreachable

37:                                               ; preds = %4
  store i1 true, ptr %5, align 1
  store i32 1, ptr %11, align 4
  br label %38

38:                                               ; preds = %37, %27
  call void @llvm.lifetime.end.p0(i64 4, ptr %10) #9
  %39 = load i1, ptr %5, align 1
  ret i1 %39
}

; Function Attrs: nounwind uwtable
define dso_local ptr @pg_any_to_server(ptr noundef %0, i32 noundef %1, i32 noundef %2) #1 {
  %4 = alloca ptr, align 8
  %5 = alloca ptr, align 8
  %6 = alloca i32, align 4
  %7 = alloca i32, align 4
  %8 = alloca i32, align 4
  %9 = alloca i32, align 4
  %10 = alloca i32, align 4
  %11 = alloca i32, align 4
  %12 = alloca i32, align 4
  store ptr %0, ptr %5, align 8
  store i32 %1, ptr %6, align 4
  store i32 %2, ptr %7, align 4
  %13 = load i32, ptr %6, align 4
  %14 = icmp sle i32 %13, 0
  br i1 %14, label %15, label %19

15:                                               ; preds = %3
  br label %16

16:                                               ; preds = %15
  br label %17

17:                                               ; preds = %16
  store i32 1, ptr %8, align 4
  %18 = load ptr, ptr %5, align 8
  store ptr %18, ptr %4, align 8
  br label %124

19:                                               ; preds = %3
  %20 = load i32, ptr %7, align 4
  %21 = load ptr, ptr @DatabaseEncoding, align 8
  %22 = getelementptr inbounds nuw %struct.pg_enc2name, ptr %21, i32 0, i32 1
  %23 = load i32, ptr %22, align 8
  %24 = icmp eq i32 %20, %23
  br i1 %24, label %28, label %25

25:                                               ; preds = %19
  %26 = load i32, ptr %7, align 4
  %27 = icmp eq i32 %26, 0
  br i1 %27, label %28, label %38

28:                                               ; preds = %25, %19
  %29 = load ptr, ptr @DatabaseEncoding, align 8
  %30 = getelementptr inbounds nuw %struct.pg_enc2name, ptr %29, i32 0, i32 1
  %31 = load i32, ptr %30, align 8
  %32 = load ptr, ptr %5, align 8
  %33 = load i32, ptr %6, align 4
  %34 = call zeroext i1 @pg_verify_mbstr(i32 noundef %31, ptr noundef %32, i32 noundef %33, i1 noundef zeroext false)
  br label %35

35:                                               ; preds = %28
  br label %36

36:                                               ; preds = %35
  store i32 1, ptr %9, align 4
  %37 = load ptr, ptr %5, align 8
  store ptr %37, ptr %4, align 8
  br label %124

38:                                               ; preds = %25
  %39 = load ptr, ptr @DatabaseEncoding, align 8
  %40 = getelementptr inbounds nuw %struct.pg_enc2name, ptr %39, i32 0, i32 1
  %41 = load i32, ptr %40, align 8
  %42 = icmp eq i32 %41, 0
  br i1 %42, label %43, label %104

43:                                               ; preds = %38
  %44 = load i32, ptr %7, align 4
  %45 = icmp sge i32 %44, 0
  br i1 %45, label %46, label %54

46:                                               ; preds = %43
  %47 = load i32, ptr %7, align 4
  %48 = icmp sle i32 %47, 34
  br i1 %48, label %49, label %54

49:                                               ; preds = %46
  %50 = load i32, ptr %7, align 4
  %51 = load ptr, ptr %5, align 8
  %52 = load i32, ptr %6, align 4
  %53 = call zeroext i1 @pg_verify_mbstr(i32 noundef %50, ptr noundef %51, i32 noundef %52, i1 noundef zeroext false)
  br label %100

54:                                               ; preds = %46, %43
  call void @llvm.lifetime.start.p0(i64 4, ptr %10) #9
  store i32 0, ptr %10, align 4
  br label %55

55:                                               ; preds = %96, %54
  %56 = load i32, ptr %10, align 4
  %57 = load i32, ptr %6, align 4
  %58 = icmp slt i32 %56, %57
  br i1 %58, label %59, label %99

59:                                               ; preds = %55
  %60 = load ptr, ptr %5, align 8
  %61 = load i32, ptr %10, align 4
  %62 = sext i32 %61 to i64
  %63 = getelementptr inbounds i8, ptr %60, i64 %62
  %64 = load i8, ptr %63, align 1
  %65 = sext i8 %64 to i32
  %66 = icmp eq i32 %65, 0
  br i1 %66, label %76, label %67

67:                                               ; preds = %59
  %68 = load ptr, ptr %5, align 8
  %69 = load i32, ptr %10, align 4
  %70 = sext i32 %69 to i64
  %71 = getelementptr inbounds i8, ptr %68, i64 %70
  %72 = load i8, ptr %71, align 1
  %73 = zext i8 %72 to i32
  %74 = and i32 %73, 128
  %75 = icmp ne i32 %74, 0
  br i1 %75, label %76, label %95

76:                                               ; preds = %67, %59
  br label %77

77:                                               ; preds = %76
  br i1 true, label %78, label %80

78:                                               ; preds = %77
  %79 = call zeroext i1 @errstart_cold(i32 noundef 21, ptr noundef null) #10
  br i1 %79, label %82, label %92

80:                                               ; preds = %77
  %81 = call zeroext i1 @errstart(i32 noundef 21, ptr noundef null)
  br i1 %81, label %82, label %92

82:                                               ; preds = %80, %78
  %83 = call i32 @errcode(i32 noundef 17301634)
  %84 = load ptr, ptr @pg_enc2name_tbl, align 8
  %85 = load ptr, ptr %5, align 8
  %86 = load i32, ptr %10, align 4
  %87 = sext i32 %86 to i64
  %88 = getelementptr inbounds i8, ptr %85, i64 %87
  %89 = load i8, ptr %88, align 1
  %90 = zext i8 %89 to i32
  %91 = call i32 (ptr, ...) @errmsg(ptr noundef @.str.9, ptr noundef %84, i32 noundef %90)
  call void @errfinish(ptr noundef @.str.1, i32 noundef 715, ptr noundef @__func__.pg_any_to_server)
  br label %92

92:                                               ; preds = %82, %80, %78
  unreachable

93:                                               ; No predecessors!
  br label %94

94:                                               ; preds = %93
  br label %95

95:                                               ; preds = %94, %67
  br label %96

96:                                               ; preds = %95
  %97 = load i32, ptr %10, align 4
  %98 = add i32 %97, 1
  store i32 %98, ptr %10, align 4
  br label %55, !llvm.loop !10

99:                                               ; preds = %55
  call void @llvm.lifetime.end.p0(i64 4, ptr %10) #9
  br label %100

100:                                              ; preds = %99, %49
  br label %101

101:                                              ; preds = %100
  br label %102

102:                                              ; preds = %101
  store i32 1, ptr %11, align 4
  %103 = load ptr, ptr %5, align 8
  store ptr %103, ptr %4, align 8
  br label %124

104:                                              ; preds = %38
  %105 = load i32, ptr %7, align 4
  %106 = load ptr, ptr @ClientEncoding, align 8
  %107 = getelementptr inbounds nuw %struct.pg_enc2name, ptr %106, i32 0, i32 1
  %108 = load i32, ptr %107, align 8
  %109 = icmp eq i32 %105, %108
  br i1 %109, label %110, label %114

110:                                              ; preds = %104
  %111 = load ptr, ptr %5, align 8
  %112 = load i32, ptr %6, align 4
  %113 = call ptr @perform_default_encoding_conversion(ptr noundef %111, i32 noundef %112, i1 noundef zeroext true)
  store ptr %113, ptr %4, align 8
  br label %124

114:                                              ; preds = %104
  br label %115

115:                                              ; preds = %114
  br label %116

116:                                              ; preds = %115
  store i32 1, ptr %12, align 4
  %117 = load ptr, ptr %5, align 8
  %118 = load i32, ptr %6, align 4
  %119 = load i32, ptr %7, align 4
  %120 = load ptr, ptr @DatabaseEncoding, align 8
  %121 = getelementptr inbounds nuw %struct.pg_enc2name, ptr %120, i32 0, i32 1
  %122 = load i32, ptr %121, align 8
  %123 = call ptr @pg_do_encoding_conversion(ptr noundef %117, i32 noundef %118, i32 noundef %119, i32 noundef %122)
  store ptr %123, ptr %4, align 8
  br label %124

124:                                              ; preds = %116, %110, %102, %36, %17
  %125 = load ptr, ptr %4, align 8
  ret ptr %125
}