; Function Attrs: nounwind uwtable
define dso_local ptr @pg_any_to_server(ptr noundef %0, i32 noundef %1, i32 noundef %2) local_unnamed_addr #0 {
  %4 = icmp slt i32 %1, 1
  br i1 %4, label %pg_verify_mbstr.exit, label %5

5:                                                ; preds = %3
  %6 = load ptr, ptr @DatabaseEncoding, align 8
  %7 = getelementptr inbounds nuw i8, ptr %6, i64 8
  %8 = load i32, ptr %7, align 8
  %9 = icmp eq i32 %2, %8
  %10 = icmp eq i32 %2, 0
  %or.cond = or i1 %10, %9
  br i1 %or.cond, label %11, label %20

11:                                               ; preds = %5
  %12 = sext i32 %8 to i64
  %13 = getelementptr inbounds [0 x %struct.pg_wchar_tbl], ptr @pg_wchar_table, i64 0, i64 %12, i32 5
  %14 = load ptr, ptr %13, align 8
  %15 = tail call i32 %14(ptr noundef %0, i32 noundef %1) #13
  %.not.i = icmp eq i32 %15, %1
  br i1 %.not.i, label %pg_verify_mbstr.exit, label %16

16:                                               ; preds = %11
  %17 = sext i32 %15 to i64
  %18 = getelementptr inbounds i8, ptr %0, i64 %17
  %19 = sub i32 %1, %15
  tail call void @report_invalid_encoding(i32 noundef %8, ptr noundef %18, i32 noundef %19) #15
  unreachable

20:                                               ; preds = %5
  %21 = icmp eq i32 %8, 0
  br i1 %21, label %22, label %43

22:                                               ; preds = %20
  %or.cond3 = icmp ult i32 %2, 35
  br i1 %or.cond3, label %23, label %.lr.ph.preheader

.lr.ph.preheader:                                 ; preds = %22
  %wide.trip.count = zext nneg i32 %1 to i64
  br label %.lr.ph

23:                                               ; preds = %22
  %24 = zext nneg i32 %2 to i64
  %25 = getelementptr inbounds nuw [0 x %struct.pg_wchar_tbl], ptr @pg_wchar_table, i64 0, i64 %24, i32 5
  %26 = load ptr, ptr %25, align 8
  %27 = tail call i32 %26(ptr noundef %0, i32 noundef %1) #13
  %.not.i36 = icmp eq i32 %27, %1
  br i1 %.not.i36, label %pg_verify_mbstr.exit, label %28

28:                                               ; preds = %23
  %29 = sext i32 %27 to i64
  %30 = getelementptr inbounds i8, ptr %0, i64 %29
  %31 = sub i32 %1, %27
  tail call void @report_invalid_encoding(i32 noundef %2, ptr noundef %30, i32 noundef %31) #15
  unreachable

32:                                               ; preds = %.lr.ph
  %indvars.iv.next = add nuw nsw i64 %indvars.iv, 1
  %exitcond.not = icmp eq i64 %indvars.iv.next, %wide.trip.count
  br i1 %exitcond.not, label %pg_verify_mbstr.exit, label %.lr.ph, !llvm.loop !7

.lr.ph:                                           ; preds = %.lr.ph.preheader, %32
  %indvars.iv = phi i64 [ 0, %.lr.ph.preheader ], [ %indvars.iv.next, %32 ]
  %33 = getelementptr inbounds nuw i8, ptr %0, i64 %indvars.iv
  %34 = load i8, ptr %33, align 1
  %or.cond35 = icmp sgt i8 %34, 0
  br i1 %or.cond35, label %32, label %35

35:                                               ; preds = %.lr.ph
  %36 = getelementptr inbounds nuw i8, ptr %0, i64 %indvars.iv
  %37 = tail call zeroext i1 @errstart_cold(i32 noundef 21, ptr noundef null) #14
  tail call void @llvm.assume(i1 %37)
  %38 = tail call i32 @errcode(i32 noundef 17301634) #13
  %39 = load ptr, ptr @pg_enc2name_tbl, align 8
  %40 = load i8, ptr %36, align 1
  %41 = zext i8 %40 to i32
  %42 = tail call i32 (ptr, ...) @errmsg(ptr noundef nonnull @.str.9, ptr noundef %39, i32 noundef %41) #13
  tail call void @errfinish(ptr noundef nonnull @.str.1, i32 noundef 715, ptr noundef nonnull @__func__.pg_any_to_server) #13
  unreachable

43:                                               ; preds = %20
  %44 = load ptr, ptr @ClientEncoding, align 8
  %45 = getelementptr inbounds nuw i8, ptr %44, i64 8
  %46 = load i32, ptr %45, align 8
  %47 = icmp eq i32 %2, %46
  br i1 %47, label %48, label %50

48:                                               ; preds = %43
  %49 = tail call fastcc ptr @perform_default_encoding_conversion(ptr noundef %0, i32 noundef %1, i1 noundef zeroext true)
  br label %pg_verify_mbstr.exit

50:                                               ; preds = %43
  %51 = tail call ptr @pg_do_encoding_conversion(ptr noundef %0, i32 noundef %1, i32 noundef %2, i32 noundef %8)
  br label %pg_verify_mbstr.exit

pg_verify_mbstr.exit:                             ; preds = %32, %23, %11, %3, %50, %48
  %.0 = phi ptr [ %49, %48 ], [ %51, %50 ], [ %0, %3 ], [ %0, %11 ], [ %0, %23 ], [ %0, %32 ]
  ret ptr %.0
}